; Function Attrs: inlinehint mustprogress uwtable
define internal fastcc void @_ZN2cv3dnn14dnn4_v20241223L5shapeERKNS_3MatE(ptr dead_on_unwind noalias nonnull writable align 8 initializes((0, 24)) %0, i32 %.4.val, ptr %.64.val) unnamed_addr #12 personality ptr @__gxx_personality_v0 {
  tail call void @llvm.memset.p0.i64(ptr noundef nonnull align 8 dereferenceable(24) %0, i8 0, i64 24, i1 false), !alias.scope !391
  %2 = sext i32 %.4.val to i64
  %3 = getelementptr inbounds i32, ptr %.64.val, i64 %2
  invoke void @_ZNSt6vectorIiSaIiEE13_M_assign_auxIPKiEEvT_S5_St20forward_iterator_tag(ptr noundef nonnull align 8 dereferenceable(24) %0, ptr noundef %.64.val, ptr noundef %3)
          to label %_ZN2cv3dnn14dnn4_v20241223L5shapeEPKii.exit unwind label %4

4:                                                ; preds = %1
  %5 = landingpad { ptr, i32 }
          cleanup
  %6 = load ptr, ptr %0, align 8, !tbaa !249, !alias.scope !391
  %.not.i.i.i.i = icmp eq ptr %6, null
  br i1 %.not.i.i.i.i, label %_ZNSt6vectorIiSaIiEED2Ev.exit.i, label %7

7:                                                ; preds = %4
  tail call void @_ZdlPv(ptr noundef nonnull %6) #33
  br label %_ZNSt6vectorIiSaIiEED2Ev.exit.i

_ZNSt6vectorIiSaIiEED2Ev.exit.i:                  ; preds = %7, %4
  resume { ptr, i32 } %5

_ZN2cv3dnn14dnn4_v20241223L5shapeEPKii.exit:      ; preds = %1
  ret void
}